target datalayout = "e-m:e-p270:32:32-p271:32:32-p272:64:64-i64:64-i128:128-f80:128-n8:16:32:64-S128"
target triple = "x86_64-pc-linux-gnu"

@.str = private unnamed_addr constant [2 x i8] c"\0A\00", align 1

; Function Attrs: nounwind uwtable
define void @ffio_write_lines(ptr noundef %0, ptr noundef %1, i32 noundef %2, ptr noundef %3) #0 {
  %5 = alloca ptr, align 8
  %6 = alloca ptr, align 8
  %7 = alloca i32, align 4
  %8 = alloca ptr, align 8
  %9 = alloca i32, align 4
  %10 = alloca i64, align 8
  %11 = alloca i8, align 1
  store ptr %0, ptr %5, align 8, !tbaa !14
  store ptr %1, ptr %6, align 8, !tbaa !9
  store i32 %2, ptr %7, align 4, !tbaa !11
  store ptr %3, ptr %8, align 8, !tbaa !9
  call void @llvm.lifetime.start.p0(i64 4, ptr %9) #12
  %12 = load ptr, ptr %8, align 8, !tbaa !9
  %13 = icmp ne ptr %12, null
  br i1 %13, label %14, label %17

14:                                               ; preds = %4
  %15 = load ptr, ptr %8, align 8, !tbaa !9
  %16 = call i64 @strlen(ptr noundef %15) #13
  br label %18

17:                                               ; preds = %4
  br label %18

18:                                               ; preds = %17, %14
  %19 = phi i64 [ %16, %14 ], [ 1, %17 ]
  %20 = trunc i64 %19 to i32
  store i32 %20, ptr %9, align 4, !tbaa !11
  %21 = load ptr, ptr %8, align 8, !tbaa !9
  %22 = icmp ne ptr %21, null
  br i1 %22, label %24, label %23

23:                                               ; preds = %18
  store ptr @.str, ptr %8, align 8, !tbaa !9
  br label %24

24:                                               ; preds = %23, %18
  %25 = load i32, ptr %7, align 4, !tbaa !11
  %26 = icmp slt i32 %25, 0
  br i1 %26, label %27, label %31

27:                                               ; preds = %24
  %28 = load ptr, ptr %6, align 8, !tbaa !9
  %29 = call i64 @strlen(ptr noundef %28) #13
  %30 = trunc i64 %29 to i32
  store i32 %30, ptr %7, align 4, !tbaa !11
  br label %31

31:                                               ; preds = %27, %24
  br label %32

32:                                               ; preds = %93, %31
  %33 = load i32, ptr %7, align 4, !tbaa !11
  %34 = icmp sgt i32 %33, 0
  br i1 %34, label %35, label %94

35:                                               ; preds = %32
  call void @llvm.lifetime.start.p0(i64 8, ptr %10) #12
  store i64 0, ptr %10, align 8, !tbaa !53
  call void @llvm.lifetime.start.p0(i64 1, ptr %11) #12
  store i8 0, ptr %11, align 1, !tbaa !50
  br label %36

36:                                               ; preds = %55, %35
  %37 = load i64, ptr %10, align 8, !tbaa !53
  %38 = load i32, ptr %7, align 4, !tbaa !11
  %39 = sext i32 %38 to i64
  %40 = icmp ult i64 %37, %39
  br i1 %40, label %41, label %58

41:                                               ; preds = %36
  %42 = load ptr, ptr %6, align 8, !tbaa !9
  %43 = load i64, ptr %10, align 8, !tbaa !53
  %44 = getelementptr inbounds nuw i8, ptr %42, i64 %43
  %45 = load i8, ptr %44, align 1, !tbaa !50
  store i8 %45, ptr %11, align 1, !tbaa !50
  %46 = load i8, ptr %11, align 1, !tbaa !50
  %47 = sext i8 %46 to i32
  %48 = icmp eq i32 %47, 13
  br i1 %48, label %53, label %49

49:                                               ; preds = %41
  %50 = load i8, ptr %11, align 1, !tbaa !50
  %51 = sext i8 %50 to i32
  %52 = icmp eq i32 %51, 10
  br i1 %52, label %53, label %54

53:                                               ; preds = %49, %41
  br label %58

54:                                               ; preds = %49
  br label %55

55:                                               ; preds = %54
  %56 = load i64, ptr %10, align 8, !tbaa !53
  %57 = add i64 %56, 1
  store i64 %57, ptr %10, align 8, !tbaa !53
  br label %36, !llvm.loop !87

58:                                               ; preds = %53, %36
  %59 = load ptr, ptr %5, align 8, !tbaa !14
  %60 = load ptr, ptr %6, align 8, !tbaa !9
  %61 = load i64, ptr %10, align 8, !tbaa !53
  %62 = trunc i64 %61 to i32
  call void @avio_write(ptr noundef %59, ptr noundef %60, i32 noundef %62)
  %63 = load ptr, ptr %5, align 8, !tbaa !14
  %64 = load ptr, ptr %8, align 8, !tbaa !9
  %65 = load i32, ptr %9, align 4, !tbaa !11
  call void @avio_write(ptr noundef %63, ptr noundef %64, i32 noundef %65)
  %66 = load i64, ptr %10, align 8, !tbaa !53
  %67 = add i64 %66, 1
  %68 = load ptr, ptr %6, align 8, !tbaa !9
  %69 = getelementptr inbounds nuw i8, ptr %68, i64 %67
  store ptr %69, ptr %6, align 8, !tbaa !9
  %70 = load i64, ptr %10, align 8, !tbaa !53
  %71 = add i64 %70, 1
  %72 = load i32, ptr %7, align 4, !tbaa !11
  %73 = sext i32 %72 to i64
  %74 = sub i64 %73, %71
  %75 = trunc i64 %74 to i32
  store i32 %75, ptr %7, align 4, !tbaa !11
  %76 = load i32, ptr %7, align 4, !tbaa !11
  %77 = icmp sgt i32 %76, 0
  br i1 %77, label %78, label %93

78:                                               ; preds = %58
  %79 = load i8, ptr %11, align 1, !tbaa !50
  %80 = sext i8 %79 to i32
  %81 = icmp eq i32 %80, 13
  br i1 %81, label %82, label %93

82:                                               ; preds = %78
  %83 = load ptr, ptr %6, align 8, !tbaa !9
  %84 = getelementptr inbounds i8, ptr %83, i64 0
  %85 = load i8, ptr %84, align 1, !tbaa !50
  %86 = zext i8 %85 to i32
  %87 = icmp eq i32 %86, 10
  br i1 %87, label %88, label %93

88:                                               ; preds = %82
  %89 = load ptr, ptr %6, align 8, !tbaa !9
  %90 = getelementptr inbounds nuw i8, ptr %89, i32 1
  store ptr %90, ptr %6, align 8, !tbaa !9
  %91 = load i32, ptr %7, align 4, !tbaa !11
  %92 = add nsw i32 %91, -1
  store i32 %92, ptr %7, align 4, !tbaa !11
  br label %93

93:                                               ; preds = %88, %82, %78, %58
  call void @llvm.lifetime.end.p0(i64 1, ptr %11) #12
  call void @llvm.lifetime.end.p0(i64 8, ptr %10) #12
  br label %32, !llvm.loop !88

94:                                               ; preds = %32
  call void @llvm.lifetime.end.p0(i64 4, ptr %9) #12
  ret void
}