; Function Attrs: nounwind uwtable
define void @ffio_write_lines(ptr noundef %0, ptr noundef %1, i32 noundef %2, ptr noundef %3) local_unnamed_addr #3 {
  %.not = icmp eq ptr %3, null
  br i1 %.not, label %8, label %5

5:                                                ; preds = %4
  %6 = tail call i64 @strlen(ptr noundef nonnull dereferenceable(1) %3) #15
  %7 = trunc i64 %6 to i32
  br label %8

8:                                                ; preds = %4, %5
  %spec.store.select = phi ptr [ %3, %5 ], [ @.str, %4 ]
  %9 = phi i32 [ %7, %5 ], [ 1, %4 ]
  %10 = icmp slt i32 %2, 0
  br i1 %10, label %11, label %14

11:                                               ; preds = %8
  %12 = tail call i64 @strlen(ptr noundef nonnull dereferenceable(1) %1) #15
  %13 = trunc i64 %12 to i32
  br label %14

14:                                               ; preds = %11, %8
  %.035 = phi i32 [ %13, %11 ], [ %2, %8 ]
  %15 = icmp sgt i32 %.035, 0
  br i1 %15, label %.preheader, label %._crit_edge

.preheader:                                       ; preds = %14, %35
  %.03342 = phi ptr [ %.134, %35 ], [ %1, %14 ]
  %.13641 = phi i32 [ %.2, %35 ], [ %.035, %14 ]
  %umax = zext nneg i32 %.13641 to i64
  br label %16

16:                                               ; preds = %.preheader, %19
  %.03240 = phi i64 [ 0, %.preheader ], [ %20, %19 ]
  %17 = getelementptr inbounds nuw i8, ptr %.03342, i64 %.03240
  %18 = load i8, ptr %17, align 1, !tbaa !33
  switch i8 %18, label %19 [
    i8 13, label %21
    i8 10, label %21
  ]

19:                                               ; preds = %16
  %20 = add nuw nsw i64 %.03240, 1
  %exitcond.not = icmp eq i64 %20, %umax
  br i1 %exitcond.not, label %21, label %16, !llvm.loop !68

21:                                               ; preds = %16, %16, %19
  %.032.lcssa = phi i64 [ %.03240, %16 ], [ %.03240, %16 ], [ %umax, %19 ]
  %22 = trunc i64 %.032.lcssa to i32
  tail call void @avio_write(ptr noundef %0, ptr noundef nonnull %.03342, i32 noundef %22)
  tail call void @avio_write(ptr noundef %0, ptr noundef nonnull %spec.store.select, i32 noundef %9)
  %23 = add nuw i64 %.032.lcssa, 1
  %24 = getelementptr inbounds nuw i8, ptr %.03342, i64 %23
  %25 = trunc i64 %23 to i32
  %26 = sub i32 %.13641, %25
  %27 = icmp sgt i32 %26, 0
  %28 = icmp eq i8 %18, 13
  %or.cond5 = and i1 %27, %28
  br i1 %or.cond5, label %29, label %35

29:                                               ; preds = %21
  %30 = load i8, ptr %24, align 1, !tbaa !33
  %31 = icmp eq i8 %30, 10
  br i1 %31, label %32, label %35

32:                                               ; preds = %29
  %33 = getelementptr inbounds nuw i8, ptr %24, i64 1
  %34 = add nsw i32 %26, -1
  br label %35

35:                                               ; preds = %32, %29, %21
  %.2 = phi i32 [ %34, %32 ], [ %26, %29 ], [ %26, %21 ]
  %.134 = phi ptr [ %33, %32 ], [ %24, %29 ], [ %24, %21 ]
  %36 = icmp sgt i32 %.2, 0
  br i1 %36, label %.preheader, label %._crit_edge, !llvm.loop !69

._crit_edge:                                      ; preds = %35, %14
  ret void
}